; Function Attrs: nounwind uwtable
define i32 @Gia_ManLevelRNum(ptr noundef captures(none) %0) local_unnamed_addr #2 {
  %2 = getelementptr i8, ptr %0, i64 24
  %.val = load i32, ptr %2, align 8
  tail call void @Gia_ManCleanLevels(ptr noundef %0, i32 noundef %.val)
  %3 = getelementptr inbounds nuw i8, ptr %0, i64 168
  store i32 0, ptr %3, align 8
  %4 = load i32, ptr %2, align 8
  %5 = getelementptr i8, ptr %0, i64 32
  %6 = icmp sgt i32 %4, 0
  br i1 %6, label %.lr.ph, label %.critedge

.lr.ph:                                           ; preds = %1
  %7 = getelementptr inbounds nuw i8, ptr %0, i64 120
  %8 = getelementptr i8, ptr %0, i64 160
  %9 = zext nneg i32 %4 to i64
  br label %10

10:                                               ; preds = %.lr.ph, %98
  %indvars.iv = phi i64 [ %9, %.lr.ph ], [ %indvars.iv.next, %98 ]
  %indvars.iv.next = add nsw i64 %indvars.iv, -1
  %.val39 = load ptr, ptr %5, align 8
  %11 = getelementptr inbounds nuw %struct.Gia_Obj_t_, ptr %.val39, i64 %indvars.iv.next
  %.not = icmp eq ptr %.val39, null
  br i1 %.not, label %.critedge.loopexit, label %12

12:                                               ; preds = %10
  %13 = load i32, ptr %7, align 8
  %.not35 = icmp eq i32 %13, 0
  %.val40.pre = load i64, ptr %11, align 4
  br i1 %.not35, label %14, label %._crit_edge

._crit_edge:                                      ; preds = %12
  %.pre82 = and i64 %.val40.pre, 2147483648
  br label %36

14:                                               ; preds = %12
  %15 = trunc i64 %.val40.pre to i32
  %16 = and i32 %15, 536870911
  %17 = lshr i64 %.val40.pre, 32
  %18 = trunc nuw i64 %17 to i32
  %19 = and i32 %18, 536870911
  %20 = icmp ne i32 %16, %19
  %.not.i = icmp eq i32 %16, 536870911
  %or.cond.not.i.not76 = or i1 %.not.i, %20
  %21 = and i64 %.val40.pre, 2147483648
  %.not4.i = icmp ne i64 %21, 0
  %narrow.i.not = or i1 %.not4.i, %or.cond.not.i.not76
  br i1 %narrow.i.not, label %36, label %22

22:                                               ; preds = %14
  %23 = trunc nuw nsw i64 %indvars.iv.next to i32
  %24 = sub nsw i32 %23, %16
  %.val50 = load ptr, ptr %8, align 8
  %25 = trunc nuw nsw i64 %indvars.iv to i32
  tail call fastcc void @Vec_IntFillExtra(ptr noundef %.val50, i32 noundef %25)
  %26 = getelementptr i8, ptr %.val50, i64 8
  %.val.i.i.i = load ptr, ptr %26, align 8
  %sext.i = shl nuw nsw i64 %indvars.iv.next, 2
  %27 = getelementptr inbounds nuw i8, ptr %.val.i.i.i, i64 %sext.i
  %28 = load i32, ptr %27, align 4
  %.val54 = load ptr, ptr %8, align 8
  %29 = getelementptr i8, ptr %.val54, i64 8
  %.val.i = load ptr, ptr %29, align 8
  %30 = sext i32 %24 to i64
  %31 = getelementptr inbounds i32, ptr %.val.i, i64 %30
  %32 = load i32, ptr %31, align 4
  %33 = tail call noundef i32 @llvm.smax.i32(i32 %32, i32 %28)
  %34 = add nsw i32 %24, 1
  tail call fastcc void @Vec_IntFillExtra(ptr noundef %.val54, i32 noundef %34)
  %.val.i.i = load ptr, ptr %29, align 8
  %35 = getelementptr inbounds i32, ptr %.val.i.i, i64 %30
  store i32 %33, ptr %35, align 4
  br label %98

36:                                               ; preds = %._crit_edge, %14
  %.pre-phi = phi i64 [ %.pre82, %._crit_edge ], [ %21, %14 ]
  %.not.i59 = icmp eq i64 %.pre-phi, 0
  %37 = and i64 %.val40.pre, 536870911
  %38 = icmp ne i64 %37, 536870911
  %narrow.i60 = and i1 %.not.i59, %38
  br i1 %narrow.i60, label %39, label %78

39:                                               ; preds = %36
  %40 = trunc i64 %.val40.pre to i32
  %41 = and i32 %40, 536870911
  %42 = trunc nuw nsw i64 %indvars.iv.next to i32
  %43 = sub nsw i32 %42, %41
  %.val48 = load ptr, ptr %8, align 8
  %44 = ptrtoint ptr %11 to i64
  %45 = trunc nuw nsw i64 %indvars.iv to i32
  tail call fastcc void @Vec_IntFillExtra(ptr noundef %.val48, i32 noundef %45)
  %46 = getelementptr i8, ptr %.val48, i64 8
  %.val.i.i.i61 = load ptr, ptr %46, align 8
  %sext.i62 = shl nuw nsw i64 %indvars.iv.next, 2
  %47 = getelementptr inbounds nuw i8, ptr %.val.i.i.i61, i64 %sext.i62
  %48 = load i32, ptr %47, align 4
  %49 = add nsw i32 %48, 1
  %.val55 = load ptr, ptr %8, align 8
  %50 = getelementptr i8, ptr %.val55, i64 8
  %.val.i63 = load ptr, ptr %50, align 8
  %51 = sext i32 %43 to i64
  %52 = getelementptr inbounds i32, ptr %.val.i63, i64 %51
  %53 = load i32, ptr %52, align 4
  %54 = tail call noundef i32 @llvm.smax.i32(i32 %53, i32 %49)
  %55 = add nsw i32 %43, 1
  tail call fastcc void @Vec_IntFillExtra(ptr noundef %.val55, i32 noundef %55)
  %.val.i.i64 = load ptr, ptr %50, align 8
  %56 = getelementptr inbounds i32, ptr %.val.i.i64, i64 %51
  store i32 %54, ptr %56, align 4
  %.val58 = load i64, ptr %11, align 4
  %57 = lshr i64 %.val58, 32
  %58 = trunc nuw i64 %57 to i32
  %59 = and i32 %58, 536870911
  %60 = sub nsw i32 %42, %59
  %.val45 = load ptr, ptr %5, align 8
  %.val46 = load ptr, ptr %8, align 8
  %61 = ptrtoint ptr %.val45 to i64
  %62 = sub i64 %44, %61
  %63 = sdiv exact i64 %62, 12
  %64 = trunc i64 %63 to i32
  %65 = add nsw i32 %64, 1
  tail call fastcc void @Vec_IntFillExtra(ptr noundef %.val46, i32 noundef %65)
  %66 = getelementptr i8, ptr %.val46, i64 8
  %.val.i.i.i65 = load ptr, ptr %66, align 8
  %sext.i66 = shl i64 %63, 32
  %67 = ashr exact i64 %sext.i66, 30
  %68 = getelementptr inbounds i8, ptr %.val.i.i.i65, i64 %67
  %69 = load i32, ptr %68, align 4
  %70 = add nsw i32 %69, 1
  %.val56 = load ptr, ptr %8, align 8
  %71 = getelementptr i8, ptr %.val56, i64 8
  %.val.i67 = load ptr, ptr %71, align 8
  %72 = sext i32 %60 to i64
  %73 = getelementptr inbounds i32, ptr %.val.i67, i64 %72
  %74 = load i32, ptr %73, align 4
  %75 = tail call noundef i32 @llvm.smax.i32(i32 %74, i32 %70)
  %76 = add nsw i32 %60, 1
  tail call fastcc void @Vec_IntFillExtra(ptr noundef %.val56, i32 noundef %76)
  %.val.i.i68 = load ptr, ptr %71, align 8
  %77 = getelementptr inbounds i32, ptr %.val.i.i68, i64 %72
  store i32 %75, ptr %77, align 4
  br label %98

78:                                               ; preds = %36
  %.not.i69 = icmp ne i64 %.pre-phi, 0
  %narrow.i70 = and i1 %.not.i69, %38
  br i1 %narrow.i70, label %79, label %91

79:                                               ; preds = %78
  %80 = trunc i64 %.val40.pre to i32
  %81 = and i32 %80, 536870911
  %82 = trunc nuw nsw i64 %indvars.iv.next to i32
  %83 = sub nsw i32 %82, %81
  %.val57 = load ptr, ptr %8, align 8
  %84 = getelementptr i8, ptr %.val57, i64 8
  %.val.i71 = load ptr, ptr %84, align 8
  %85 = sext i32 %83 to i64
  %86 = getelementptr inbounds i32, ptr %.val.i71, i64 %85
  %87 = load i32, ptr %86, align 4
  %88 = tail call noundef i32 @llvm.smax.i32(i32 %87, i32 1)
  %89 = add nsw i32 %83, 1
  tail call fastcc void @Vec_IntFillExtra(ptr noundef %.val57, i32 noundef %89)
  %.val.i.i72 = load ptr, ptr %84, align 8
  %90 = getelementptr inbounds i32, ptr %.val.i.i72, i64 %85
  store i32 %88, ptr %90, align 4
  br label %98

91:                                               ; preds = %78
  %92 = load i32, ptr %3, align 8
  %.val44 = load ptr, ptr %8, align 8
  %93 = trunc nuw nsw i64 %indvars.iv to i32
  tail call fastcc void @Vec_IntFillExtra(ptr noundef %.val44, i32 noundef %93)
  %94 = getelementptr i8, ptr %.val44, i64 8
  %.val.i.i.i73 = load ptr, ptr %94, align 8
  %sext.i74 = shl nuw nsw i64 %indvars.iv.next, 2
  %95 = getelementptr inbounds nuw i8, ptr %.val.i.i.i73, i64 %sext.i74
  %96 = load i32, ptr %95, align 4
  %97 = tail call noundef i32 @llvm.smax.i32(i32 %92, i32 %96)
  store i32 %97, ptr %3, align 8
  br label %98

98:                                               ; preds = %22, %79, %91, %39
  %99 = icmp samesign ugt i64 %indvars.iv, 1
  br i1 %99, label %10, label %.critedge.loopexit, !llvm.loop !23

.critedge.loopexit:                               ; preds = %98, %10
  %.pre = load i32, ptr %3, align 8
  br label %.critedge

.critedge:                                        ; preds = %.critedge.loopexit, %1
  %100 = phi i32 [ %.pre, %.critedge.loopexit ], [ 0, %1 ]
  ret i32 %100
}